target datalayout = "e-m:e-p270:32:32-p271:32:32-p272:64:64-i64:64-i128:128-f80:128-n8:16:32:64-S128"
target triple = "x86_64-pc-linux-gnu"

%struct.lzma_index_coder = type { i32, i64, ptr, ptr, i64, i64, i64, i64, i32 }

; Function Attrs: nounwind uwtable
define internal i32 @index_decoder_memconfig(ptr noundef %0, ptr noundef %1, ptr noundef %2, i64 noundef %3) #0 {
  %5 = alloca i32, align 4
  %6 = alloca ptr, align 8
  %7 = alloca ptr, align 8
  %8 = alloca ptr, align 8
  %9 = alloca i64, align 8
  %10 = alloca ptr, align 8
  %11 = alloca i32, align 4
  store ptr %0, ptr %6, align 8, !tbaa !9
  store ptr %1, ptr %7, align 8, !tbaa !26
  store ptr %2, ptr %8, align 8, !tbaa !26
  store i64 %3, ptr %9, align 8, !tbaa !12
  call void @llvm.lifetime.start.p0(i64 8, ptr %10) #5
  %12 = load ptr, ptr %6, align 8, !tbaa !9
  store ptr %12, ptr %10, align 8, !tbaa !9
  %13 = load ptr, ptr %10, align 8, !tbaa !9
  %14 = getelementptr inbounds nuw %struct.lzma_index_coder, ptr %13, i32 0, i32 4
  %15 = load i64, ptr %14, align 8, !tbaa !32
  %16 = call i64 @lzma_index_memusage(i64 noundef 1, i64 noundef %15) #5
  %17 = load ptr, ptr %7, align 8, !tbaa !26
  store i64 %16, ptr %17, align 8, !tbaa !12
  %18 = load ptr, ptr %10, align 8, !tbaa !9
  %19 = getelementptr inbounds nuw %struct.lzma_index_coder, ptr %18, i32 0, i32 1
  %20 = load i64, ptr %19, align 8, !tbaa !33
  %21 = load ptr, ptr %8, align 8, !tbaa !26
  store i64 %20, ptr %21, align 8, !tbaa !12
  %22 = load i64, ptr %9, align 8, !tbaa !12
  %23 = icmp ne i64 %22, 0
  br i1 %23, label %24, label %34

24:                                               ; preds = %4
  %25 = load i64, ptr %9, align 8, !tbaa !12
  %26 = load ptr, ptr %7, align 8, !tbaa !26
  %27 = load i64, ptr %26, align 8, !tbaa !12
  %28 = icmp ult i64 %25, %27
  br i1 %28, label %29, label %30

29:                                               ; preds = %24
  store i32 6, ptr %5, align 4
  store i32 1, ptr %11, align 4
  br label %35

30:                                               ; preds = %24
  %31 = load i64, ptr %9, align 8, !tbaa !12
  %32 = load ptr, ptr %10, align 8, !tbaa !9
  %33 = getelementptr inbounds nuw %struct.lzma_index_coder, ptr %32, i32 0, i32 1
  store i64 %31, ptr %33, align 8, !tbaa !33
  br label %34

34:                                               ; preds = %30, %4
  store i32 0, ptr %5, align 4
  store i32 1, ptr %11, align 4
  br label %35

35:                                               ; preds = %34, %29
  call void @llvm.lifetime.end.p0(i64 8, ptr %10) #5
  %36 = load i32, ptr %5, align 4
  ret i32 %36
}