; Function Attrs: nounwind uwtable
define internal range(i32 0, 7) i32 @index_decoder_memconfig(ptr noundef captures(none) %0, ptr noundef captures(none) initializes((0, 8)) %1, ptr noundef writeonly captures(none) initializes((0, 8)) %2, i64 noundef %3) #0 {
  %5 = getelementptr inbounds nuw i8, ptr %0, i64 32
  %6 = load i64, ptr %5, align 8, !tbaa !23
  %7 = tail call i64 @lzma_index_memusage(i64 noundef 1, i64 noundef %6) #6
  store i64 %7, ptr %1, align 8, !tbaa !26
  %8 = getelementptr inbounds nuw i8, ptr %0, i64 8
  %9 = load i64, ptr %8, align 8, !tbaa !22
  store i64 %9, ptr %2, align 8, !tbaa !26
  %.not = icmp eq i64 %3, 0
  br i1 %.not, label %14, label %10

10:                                               ; preds = %4
  %11 = load i64, ptr %1, align 8, !tbaa !26
  %12 = icmp ult i64 %3, %11
  br i1 %12, label %14, label %13

13:                                               ; preds = %10
  store i64 %3, ptr %8, align 8, !tbaa !22
  br label %14

14:                                               ; preds = %4, %13, %10
  %.0 = phi i32 [ 6, %10 ], [ 0, %13 ], [ 0, %4 ]
  ret i32 %.0
}